target datalayout = "e-m:e-p270:32:32-p271:32:32-p272:64:64-i64:64-i128:128-f80:128-n8:16:32:64-S128"
target triple = "x86_64-pc-linux-gnu"

%struct.hwloc_ps_process = type { i64, [64 x i8], [1024 x i8], ptr, i64, i32, i32, i32, ptr }
%struct.hwloc_ps_thread = type { i64, ptr, i32, [16 x i8] }

; Function Attrs: nounwind uwtable
define hidden void @hwloc_ps_free_process(ptr noundef %0) #0 {
  %2 = alloca ptr, align 8
  %3 = alloca i32, align 4
  store ptr %0, ptr %2, align 8, !tbaa !10
  call void @llvm.lifetime.start.p0(i64 4, ptr %3) #10
  %4 = load ptr, ptr %2, align 8, !tbaa !10
  %5 = getelementptr inbounds nuw %struct.hwloc_ps_process, ptr %4, i32 0, i32 6
  %6 = load i32, ptr %5, align 4, !tbaa !36
  %7 = icmp ne i32 %6, 0
  br i1 %7, label %8, label %39

8:                                                ; preds = %1
  store i32 0, ptr %3, align 4, !tbaa !18
  br label %9

9:                                                ; preds = %35, %8
  %10 = load i32, ptr %3, align 4, !tbaa !18
  %11 = load ptr, ptr %2, align 8, !tbaa !10
  %12 = getelementptr inbounds nuw %struct.hwloc_ps_process, ptr %11, i32 0, i32 6
  %13 = load i32, ptr %12, align 4, !tbaa !36
  %14 = icmp ult i32 %10, %13
  br i1 %14, label %15, label %38

15:                                               ; preds = %9
  %16 = load ptr, ptr %2, align 8, !tbaa !10
  %17 = getelementptr inbounds nuw %struct.hwloc_ps_process, ptr %16, i32 0, i32 8
  %18 = load ptr, ptr %17, align 8, !tbaa !29
  %19 = load i32, ptr %3, align 4, !tbaa !18
  %20 = zext i32 %19 to i64
  %21 = getelementptr inbounds nuw %struct.hwloc_ps_thread, ptr %18, i64 %20
  %22 = getelementptr inbounds nuw %struct.hwloc_ps_thread, ptr %21, i32 0, i32 1
  %23 = load ptr, ptr %22, align 8, !tbaa !33
  %24 = icmp ne ptr %23, null
  br i1 %24, label %25, label %34

25:                                               ; preds = %15
  %26 = load ptr, ptr %2, align 8, !tbaa !10
  %27 = getelementptr inbounds nuw %struct.hwloc_ps_process, ptr %26, i32 0, i32 8
  %28 = load ptr, ptr %27, align 8, !tbaa !29
  %29 = load i32, ptr %3, align 4, !tbaa !18
  %30 = zext i32 %29 to i64
  %31 = getelementptr inbounds nuw %struct.hwloc_ps_thread, ptr %28, i64 %30
  %32 = getelementptr inbounds nuw %struct.hwloc_ps_thread, ptr %31, i32 0, i32 1
  %33 = load ptr, ptr %32, align 8, !tbaa !33
  call void @hwloc_bitmap_free(ptr noundef %33)
  br label %34

34:                                               ; preds = %25, %15
  br label %35

35:                                               ; preds = %34
  %36 = load i32, ptr %3, align 4, !tbaa !18
  %37 = add i32 %36, 1
  store i32 %37, ptr %3, align 4, !tbaa !18
  br label %9, !llvm.loop !46

38:                                               ; preds = %9
  br label %39

39:                                               ; preds = %38, %1
  %40 = load ptr, ptr %2, align 8, !tbaa !10
  %41 = getelementptr inbounds nuw %struct.hwloc_ps_process, ptr %40, i32 0, i32 8
  %42 = load ptr, ptr %41, align 8, !tbaa !29
  call void @free(ptr noundef %42) #10
  %43 = load ptr, ptr %2, align 8, !tbaa !10
  %44 = getelementptr inbounds nuw %struct.hwloc_ps_process, ptr %43, i32 0, i32 3
  %45 = load ptr, ptr %44, align 8, !tbaa !38
  call void @hwloc_bitmap_free(ptr noundef %45)
  call void @llvm.lifetime.end.p0(i64 4, ptr %3) #10
  ret void
}