; Function Attrs: nounwind uwtable
define hidden void @hwloc_ps_free_process(ptr noundef readonly captures(none) %0) local_unnamed_addr #0 {
  %2 = getelementptr inbounds nuw i8, ptr %0, i64 1116
  %3 = load i32, ptr %2, align 4, !tbaa !25
  %.not = icmp eq i32 %3, 0
  br i1 %.not, label %.loopexit, label %.lr.ph

.lr.ph:                                           ; preds = %1
  %4 = getelementptr inbounds nuw i8, ptr %0, i64 1128
  br label %5

5:                                                ; preds = %.lr.ph, %11
  %6 = phi i32 [ %3, %.lr.ph ], [ %12, %11 ]
  %indvars.iv = phi i64 [ 0, %.lr.ph ], [ %indvars.iv.next, %11 ]
  %7 = load ptr, ptr %4, align 8, !tbaa !18
  %8 = getelementptr inbounds nuw %struct.hwloc_ps_thread, ptr %7, i64 %indvars.iv, i32 1
  %9 = load ptr, ptr %8, align 8, !tbaa !22
  %.not10 = icmp eq ptr %9, null
  br i1 %.not10, label %11, label %10

10:                                               ; preds = %5
  tail call void @hwloc_bitmap_free(ptr noundef nonnull %9) #15
  %.pre = load i32, ptr %2, align 4, !tbaa !25
  br label %11

11:                                               ; preds = %5, %10
  %12 = phi i32 [ %6, %5 ], [ %.pre, %10 ]
  %indvars.iv.next = add nuw nsw i64 %indvars.iv, 1
  %13 = zext i32 %12 to i64
  %14 = icmp samesign ult i64 %indvars.iv.next, %13
  br i1 %14, label %5, label %.loopexit, !llvm.loop !30

.loopexit:                                        ; preds = %11, %1
  %15 = getelementptr inbounds nuw i8, ptr %0, i64 1128
  %16 = load ptr, ptr %15, align 8, !tbaa !18
  tail call void @free(ptr noundef %16) #15
  %17 = getelementptr inbounds nuw i8, ptr %0, i64 1096
  %18 = load ptr, ptr %17, align 8, !tbaa !27
  tail call void @hwloc_bitmap_free(ptr noundef %18) #15
  ret void
}